; Function Attrs: mustprogress uwtable
define void @ucol_restoreVariableTop_75(ptr noundef %coll, i32 noundef %varTop, ptr noundef %status) local_unnamed_addr #0 {
entry:
  %0 = load i32, ptr %status, align 4
  %cmp.i = icmp sgt i32 %0, 0
  %cmp = icmp eq ptr %coll, null
  %or.cond = or i1 %cmp, %cmp.i
  br i1 %or.cond, label %return, label %if.end

if.end:                                           ; preds = %entry
  %vtable = load ptr, ptr %coll, align 8
  %vfn = getelementptr inbounds i8, ptr %vtable, i64 232
  %1 = load ptr, ptr %vfn, align 8
  tail call void %1(ptr noundef nonnull align 8 dereferenceable(8) %coll, i32 noundef %varTop, ptr noundef nonnull align 4 dereferenceable(4) %status)
  br label %return

return:                                           ; preds = %entry, %if.end
  ret void
}